; ModuleID = '1/555.c'
source_filename = "1/555.c"
target datalayout = "e-m:e-p270:32:32-p271:32:32-p272:64:64-i64:64-f80:128-n8:16:32:64-S128"
target triple = "x86_64-pc-linux-gnu"

@sum = dso_local global i32 0, align 4
@.str = private unnamed_addr constant [3 x i8] c"%d\00", align 1
@.str.1 = private unnamed_addr constant [4 x i8] c"%d\0A\00", align 1

; Function Attrs: noinline nounwind uwtable
define dso_local void @f(i32 %0, i32 %1) #0 {
  %3 = alloca i32, align 4
  %4 = alloca i32, align 4
  %5 = alloca double, align 8
  store i32 %0, i32* %3, align 4
  store i32 %1, i32* %4, align 4
  %6 = load i32, i32* %3, align 4
  %7 = sitofp i32 %6 to double
  %8 = call double @sqrt(double %7) #4
  store double %8, double* %5, align 8
  %9 = load i32, i32* %4, align 4
  %10 = sitofp i32 %9 to double
  %11 = load double, double* %5, align 8
  %12 = fcmp olt double %10, %11
  br i1 %12, label %13, label %29

13:                                               ; preds = %2
  %14 = load i32, i32* %3, align 4
  %15 = load i32, i32* %4, align 4
  %16 = srem i32 %14, %15
  %17 = icmp eq i32 %16, 0
  br i1 %17, label %18, label %25

18:                                               ; preds = %13
  %19 = load i32, i32* @sum, align 4
  %20 = add nsw i32 %19, 1
  store i32 %20, i32* @sum, align 4
  %21 = load i32, i32* %3, align 4
  %22 = load i32, i32* %4, align 4
  %23 = sdiv i32 %21, %22
  %24 = load i32, i32* %4, align 4
  call void @f(i32 %23, i32 %24)
  br label %25

25:                                               ; preds = %18, %13
  %26 = load i32, i32* %3, align 4
  %27 = load i32, i32* %4, align 4
  %28 = add nsw i32 %27, 1
  call void @f(i32 %26, i32 %28)
  br label %29

29:                                               ; preds = %25, %2
  %30 = load i32, i32* %4, align 4
  %31 = sitofp i32 %30 to double
  %32 = load double, double* %5, align 8
  %33 = fsub double %31, %32
  %34 = call double @llvm.fabs.f64(double %33)
  %35 = fcmp olt double %34, 1.000000e-08
  br i1 %35, label %36, label %39

36:                                               ; preds = %29
  %37 = load i32, i32* @sum, align 4
  %38 = add nsw i32 %37, 1
  store i32 %38, i32* @sum, align 4
  br label %39

39:                                               ; preds = %36, %29
  ret void
}

; Function Attrs: nounwind
declare dso_local double @sqrt(double) #1

; Function Attrs: nounwind readnone speculatable willreturn
declare double @llvm.fabs.f64(double) #2

; Function Attrs: noinline nounwind uwtable
define dso_local i32 @main() #0 {
  %1 = alloca i32, align 4
  %2 = alloca i32, align 4
  %3 = alloca i32, align 4
  %4 = alloca i32, align 4
  store i32 0, i32* %1, align 4
  %5 = call i32 (i8*, ...) @__isoc99_scanf(i8* getelementptr inbounds ([3 x i8], [3 x i8]* @.str, i64 0, i64 0), i32* %4)
  store i32 0, i32* %3, align 4
  br label %6

6:                                                ; preds = %16, %0
  %7 = load i32, i32* %3, align 4
  %8 = load i32, i32* %4, align 4
  %9 = icmp slt i32 %7, %8
  br i1 %9, label %10, label %19

10:                                               ; preds = %6
  %11 = call i32 (i8*, ...) @__isoc99_scanf(i8* getelementptr inbounds ([3 x i8], [3 x i8]* @.str, i64 0, i64 0), i32* %2)
  store i32 0, i32* @sum, align 4
  %12 = load i32, i32* %2, align 4
  call void @f(i32 %12, i32 2)
  %13 = load i32, i32* @sum, align 4
  %14 = add nsw i32 %13, 1
  %15 = call i32 (i8*, ...) @printf(i8* getelementptr inbounds ([4 x i8], [4 x i8]* @.str.1, i64 0, i64 0), i32 %14)
  br label %16

16:                                               ; preds = %10
  %17 = load i32, i32* %3, align 4
  %18 = add nsw i32 %17, 1
  store i32 %18, i32* %3, align 4
  br label %6

19:                                               ; preds = %6
  ret i32 0
}

declare dso_local i32 @__isoc99_scanf(i8*, ...) #3

declare dso_local i32 @printf(i8*, ...) #3


!llvm.module.flags = !{!0}
!llvm.ident = !{!1}

!0 = !{i32 1, !"wchar_size", i32 4}
!1 = !{!"clang version 10.0.0-4ubuntu1 "}
