; ModuleID = 'source-C-CXX/0/555.c'
source_filename = "source-C-CXX/0/555.c"
target datalayout = "e-m:e-p270:32:32-p271:32:32-p272:64:64-i64:64-f80:128-n8:16:32:64-S128"
target triple = "x86_64-pc-linux-gnu"

@sum = dso_local local_unnamed_addr global i32 0, align 4
@.str = private unnamed_addr constant [3 x i8] c"%d\00", align 1
@.str.1 = private unnamed_addr constant [4 x i8] c"%d\0A\00", align 1

; Function Attrs: nofree nounwind sspstrong uwtable
define dso_local void @f(i32 %0, i32 %1) local_unnamed_addr #0 {
  %3 = sitofp i32 %0 to double
  %4 = tail call double @sqrt(double %3) #5
  %5 = sitofp i32 %1 to double
  %6 = fcmp ogt double %4, %5
  br i1 %6, label %7, label %16

7:                                                ; preds = %2
  %8 = srem i32 %0, %1
  %9 = sdiv i32 %0, %1
  %10 = icmp eq i32 %8, 0
  br i1 %10, label %11, label %14

11:                                               ; preds = %7
  %12 = load i32, i32* @sum, align 4, !tbaa !5
  %13 = add nsw i32 %12, 1
  store i32 %13, i32* @sum, align 4, !tbaa !5
  tail call void @f(i32 %9, i32 %1)
  br label %14

14:                                               ; preds = %11, %7
  %15 = add nsw i32 %1, 1
  tail call void @f(i32 %0, i32 %15)
  br label %16

16:                                               ; preds = %14, %2
  %17 = fsub double %5, %4
  %18 = tail call double @llvm.fabs.f64(double %17)
  %19 = fcmp olt double %18, 1.000000e-08
  br i1 %19, label %20, label %23

20:                                               ; preds = %16
  %21 = load i32, i32* @sum, align 4, !tbaa !5
  %22 = add nsw i32 %21, 1
  store i32 %22, i32* @sum, align 4, !tbaa !5
  br label %23

23:                                               ; preds = %20, %16
  ret void
}

; Function Attrs: argmemonly mustprogress nofree nosync nounwind willreturn
declare void @llvm.lifetime.start.p0i8(i64 immarg, i8* nocapture) #1

; Function Attrs: mustprogress nofree nounwind willreturn
declare double @sqrt(double) local_unnamed_addr #2

; Function Attrs: mustprogress nofree nosync nounwind readnone speculatable willreturn
declare double @llvm.fabs.f64(double) #3

; Function Attrs: argmemonly mustprogress nofree nosync nounwind willreturn
declare void @llvm.lifetime.end.p0i8(i64 immarg, i8* nocapture) #1

; Function Attrs: nofree nounwind sspstrong uwtable
define dso_local i32 @main() local_unnamed_addr #0 {
  %1 = alloca i32, align 4
  %2 = alloca i32, align 4
  %3 = bitcast i32* %1 to i8*
  call void @llvm.lifetime.start.p0i8(i64 4, i8* nonnull %3) #5
  %4 = bitcast i32* %2 to i8*
  call void @llvm.lifetime.start.p0i8(i64 4, i8* nonnull %4) #5
  %5 = call i32 (i8*, ...) @__isoc99_scanf(i8* getelementptr inbounds ([3 x i8], [3 x i8]* @.str, i64 0, i64 0), i32* nonnull %2)
  %6 = load i32, i32* %2, align 4, !tbaa !5
  %7 = icmp sgt i32 %6, 0
  br i1 %7, label %8, label %18

8:                                                ; preds = %0, %8
  %9 = phi i32 [ %15, %8 ], [ 0, %0 ]
  %10 = call i32 (i8*, ...) @__isoc99_scanf(i8* getelementptr inbounds ([3 x i8], [3 x i8]* @.str, i64 0, i64 0), i32* nonnull %1)
  store i32 0, i32* @sum, align 4, !tbaa !5
  %11 = load i32, i32* %1, align 4, !tbaa !5
  call void @f(i32 %11, i32 2)
  %12 = load i32, i32* @sum, align 4, !tbaa !5
  %13 = add nsw i32 %12, 1
  %14 = call i32 (i8*, ...) @printf(i8* nonnull dereferenceable(1) getelementptr inbounds ([4 x i8], [4 x i8]* @.str.1, i64 0, i64 0), i32 %13)
  %15 = add nuw nsw i32 %9, 1
  %16 = load i32, i32* %2, align 4, !tbaa !5
  %17 = icmp slt i32 %15, %16
  br i1 %17, label %8, label %18, !llvm.loop !9

18:                                               ; preds = %8, %0
  call void @llvm.lifetime.end.p0i8(i64 4, i8* nonnull %4) #5
  call void @llvm.lifetime.end.p0i8(i64 4, i8* nonnull %3) #5
  ret i32 0
}

; Function Attrs: nofree nounwind
declare noundef i32 @__isoc99_scanf(i8* nocapture noundef readonly, ...) local_unnamed_addr #4

; Function Attrs: nofree nounwind
declare noundef i32 @printf(i8* nocapture noundef readonly, ...) local_unnamed_addr #4


!llvm.module.flags = !{!0, !1, !2, !3}
!llvm.ident = !{!4}

!0 = !{i32 1, !"wchar_size", i32 4}
!1 = !{i32 7, !"PIC Level", i32 2}
!2 = !{i32 7, !"PIE Level", i32 2}
!3 = !{i32 7, !"uwtable", i32 1}
!4 = !{!"clang version 13.0.0"}
!5 = !{!6, !6, i64 0}
!6 = !{!"int", !7, i64 0}
!7 = !{!"omnipotent char", !8, i64 0}
!8 = !{!"Simple C/C++ TBAA"}
!9 = distinct !{!9, !10}
!10 = !{!"llvm.loop.mustprogress"}
